target datalayout = "e-m:e-p270:32:32-p271:32:32-p272:64:64-i64:64-i128:128-f80:128-n8:16:32:64-S128"
target triple = "x86_64-unknown-linux-gnu"

%struct.UDataInfo = type { i16, i16, i8, i8, i8, i8, [4 x i8], [4 x i8], [4 x i8] }

; Function Attrs: mustprogress nounwind uwtable
define internal noundef signext i8 @_ZN12_GLOBAL__N_120ulayout_isAcceptableEPvPKcS2_PK9UDataInfo(ptr noundef %0, ptr noundef %1, ptr noundef %2, ptr noundef %pInfo) #2 {
entry:
  %.addr = alloca ptr, align 8
  %.addr1 = alloca ptr, align 8
  %.addr2 = alloca ptr, align 8
  %pInfo.addr = alloca ptr, align 8
  store ptr %0, ptr %.addr, align 8
  store ptr %1, ptr %.addr1, align 8
  store ptr %2, ptr %.addr2, align 8
  store ptr %pInfo, ptr %pInfo.addr, align 8
  %3 = load ptr, ptr %pInfo.addr, align 8
  %size = getelementptr inbounds %struct.UDataInfo, ptr %3, i32 0, i32 0
  %4 = load i16, ptr %size, align 2
  %conv = zext i16 %4 to i32
  %cmp = icmp sge i32 %conv, 20
  br i1 %cmp, label %land.lhs.true, label %land.end

land.lhs.true:                                    ; preds = %entry
  %5 = load ptr, ptr %pInfo.addr, align 8
  %isBigEndian = getelementptr inbounds %struct.UDataInfo, ptr %5, i32 0, i32 2
  %6 = load i8, ptr %isBigEndian, align 2
  %conv3 = zext i8 %6 to i32
  %cmp4 = icmp eq i32 %conv3, 0
  br i1 %cmp4, label %land.lhs.true5, label %land.end

land.lhs.true5:                                   ; preds = %land.lhs.true
  %7 = load ptr, ptr %pInfo.addr, align 8
  %charsetFamily = getelementptr inbounds %struct.UDataInfo, ptr %7, i32 0, i32 3
  %8 = load i8, ptr %charsetFamily, align 1
  %conv6 = zext i8 %8 to i32
  %cmp7 = icmp eq i32 %conv6, 0
  br i1 %cmp7, label %land.lhs.true8, label %land.end

land.lhs.true8:                                   ; preds = %land.lhs.true5
  %9 = load ptr, ptr %pInfo.addr, align 8
  %dataFormat = getelementptr inbounds %struct.UDataInfo, ptr %9, i32 0, i32 6
  %arrayidx = getelementptr inbounds [4 x i8], ptr %dataFormat, i64 0, i64 0
  %10 = load i8, ptr %arrayidx, align 2
  %conv9 = zext i8 %10 to i32
  %cmp10 = icmp eq i32 %conv9, 76
  br i1 %cmp10, label %land.lhs.true11, label %land.end

land.lhs.true11:                                  ; preds = %land.lhs.true8
  %11 = load ptr, ptr %pInfo.addr, align 8
  %dataFormat12 = getelementptr inbounds %struct.UDataInfo, ptr %11, i32 0, i32 6
  %arrayidx13 = getelementptr inbounds [4 x i8], ptr %dataFormat12, i64 0, i64 1
  %12 = load i8, ptr %arrayidx13, align 1
  %conv14 = zext i8 %12 to i32
  %cmp15 = icmp eq i32 %conv14, 97
  br i1 %cmp15, label %land.lhs.true16, label %land.end

land.lhs.true16:                                  ; preds = %land.lhs.true11
  %13 = load ptr, ptr %pInfo.addr, align 8
  %dataFormat17 = getelementptr inbounds %struct.UDataInfo, ptr %13, i32 0, i32 6
  %arrayidx18 = getelementptr inbounds [4 x i8], ptr %dataFormat17, i64 0, i64 2
  %14 = load i8, ptr %arrayidx18, align 2
  %conv19 = zext i8 %14 to i32
  %cmp20 = icmp eq i32 %conv19, 121
  br i1 %cmp20, label %land.lhs.true21, label %land.end

land.lhs.true21:                                  ; preds = %land.lhs.true16
  %15 = load ptr, ptr %pInfo.addr, align 8
  %dataFormat22 = getelementptr inbounds %struct.UDataInfo, ptr %15, i32 0, i32 6
  %arrayidx23 = getelementptr inbounds [4 x i8], ptr %dataFormat22, i64 0, i64 3
  %16 = load i8, ptr %arrayidx23, align 1
  %conv24 = zext i8 %16 to i32
  %cmp25 = icmp eq i32 %conv24, 111
  br i1 %cmp25, label %land.rhs, label %land.end

land.rhs:                                         ; preds = %land.lhs.true21
  %17 = load ptr, ptr %pInfo.addr, align 8
  %formatVersion = getelementptr inbounds %struct.UDataInfo, ptr %17, i32 0, i32 7
  %arrayidx26 = getelementptr inbounds [4 x i8], ptr %formatVersion, i64 0, i64 0
  %18 = load i8, ptr %arrayidx26, align 2
  %conv27 = zext i8 %18 to i32
  %cmp28 = icmp eq i32 %conv27, 1
  br label %land.end

land.end:                                         ; preds = %land.rhs, %land.lhs.true21, %land.lhs.true16, %land.lhs.true11, %land.lhs.true8, %land.lhs.true5, %land.lhs.true, %entry
  %19 = phi i1 [ false, %land.lhs.true21 ], [ false, %land.lhs.true16 ], [ false, %land.lhs.true11 ], [ false, %land.lhs.true8 ], [ false, %land.lhs.true5 ], [ false, %land.lhs.true ], [ false, %entry ], [ %cmp28, %land.rhs ]
  %conv29 = zext i1 %19 to i8
  ret i8 %conv29
}