; Function Attrs: mustprogress nofree norecurse nosync nounwind willreturn memory(argmem: read) uwtable
define internal noundef signext i8 @_ZN12_GLOBAL__N_120ulayout_isAcceptableEPvPKcS2_PK9UDataInfo(ptr nocapture readnone %0, ptr nocapture readnone %1, ptr nocapture readnone %2, ptr nocapture noundef readonly %pInfo) #6 {
entry:
  %3 = load i16, ptr %pInfo, align 2
  %cmp = icmp ugt i16 %3, 19
  br i1 %cmp, label %land.lhs.true, label %land.end

land.lhs.true:                                    ; preds = %entry
  %isBigEndian = getelementptr inbounds i8, ptr %pInfo, i64 4
  %4 = load i8, ptr %isBigEndian, align 2
  %cmp4 = icmp eq i8 %4, 0
  br i1 %cmp4, label %land.lhs.true5, label %land.end

land.lhs.true5:                                   ; preds = %land.lhs.true
  %charsetFamily = getelementptr inbounds i8, ptr %pInfo, i64 5
  %5 = load i8, ptr %charsetFamily, align 1
  %cmp7 = icmp eq i8 %5, 0
  br i1 %cmp7, label %land.lhs.true8, label %land.end

land.lhs.true8:                                   ; preds = %land.lhs.true5
  %dataFormat = getelementptr inbounds i8, ptr %pInfo, i64 8
  %6 = load i8, ptr %dataFormat, align 2
  %cmp10 = icmp eq i8 %6, 76
  br i1 %cmp10, label %land.lhs.true11, label %land.end

land.lhs.true11:                                  ; preds = %land.lhs.true8
  %arrayidx13 = getelementptr inbounds i8, ptr %pInfo, i64 9
  %7 = load i8, ptr %arrayidx13, align 1
  %cmp15 = icmp eq i8 %7, 97
  br i1 %cmp15, label %land.lhs.true16, label %land.end

land.lhs.true16:                                  ; preds = %land.lhs.true11
  %arrayidx18 = getelementptr inbounds i8, ptr %pInfo, i64 10
  %8 = load i8, ptr %arrayidx18, align 2
  %cmp20 = icmp eq i8 %8, 121
  br i1 %cmp20, label %land.lhs.true21, label %land.end

land.lhs.true21:                                  ; preds = %land.lhs.true16
  %arrayidx23 = getelementptr inbounds i8, ptr %pInfo, i64 11
  %9 = load i8, ptr %arrayidx23, align 1
  %cmp25 = icmp eq i8 %9, 111
  br i1 %cmp25, label %land.rhs, label %land.end

land.rhs:                                         ; preds = %land.lhs.true21
  %formatVersion = getelementptr inbounds i8, ptr %pInfo, i64 12
  %10 = load i8, ptr %formatVersion, align 2
  %cmp28 = icmp eq i8 %10, 1
  %11 = zext i1 %cmp28 to i8
  br label %land.end

land.end:                                         ; preds = %land.rhs, %land.lhs.true21, %land.lhs.true16, %land.lhs.true11, %land.lhs.true8, %land.lhs.true5, %land.lhs.true, %entry
  %conv29 = phi i8 [ 0, %land.lhs.true21 ], [ 0, %land.lhs.true16 ], [ 0, %land.lhs.true11 ], [ 0, %land.lhs.true8 ], [ 0, %land.lhs.true5 ], [ 0, %land.lhs.true ], [ 0, %entry ], [ %11, %land.rhs ]
  ret i8 %conv29
}